; Function Attrs: nounwind uwtable
define internal void @verify_SNI_real_matching(ptr noundef %0) #0 {
  %2 = alloca ptr, align 8
  call void @llvm.lifetime.start.p0(i64 8, ptr nonnull %2) #27
  store ptr null, ptr %2, align 8, !tbaa !208
  %3 = tail call zeroext i8 @wolfSSL_SNI_Status(ptr noundef %0, i8 noundef zeroext 0) #27
  %4 = icmp eq i8 %3, 2
  br i1 %4, label %18, label %5

5:                                                ; preds = %1
  %6 = zext i8 %3 to i32
  %7 = tail call i32 (ptr, ...) @printf(ptr noundef nonnull dereferenceable(1) @.str, ptr noundef nonnull @.str.1, i32 noundef 11495)
  %8 = load ptr, ptr @stdout, align 8, !tbaa !22
  %9 = tail call i64 @fwrite(ptr nonnull @.str.2, i64 15, i64 1, ptr %8)
  %10 = tail call i32 (ptr, ...) @printf(ptr noundef nonnull dereferenceable(1) @.str.3, ptr noundef nonnull @.str.2021, ptr noundef nonnull @.str.2022)
  %11 = load ptr, ptr @stdout, align 8, !tbaa !22
  %12 = tail call i64 @fwrite(ptr nonnull @.str.6, i64 15, i64 1, ptr %11)
  %13 = tail call i32 (ptr, ...) @printf(ptr noundef nonnull dereferenceable(1) @.str.7, i32 noundef 2, i32 noundef %6)
  %14 = load ptr, ptr @stdout, align 8, !tbaa !22
  %15 = tail call i64 @fwrite(ptr nonnull @.str.8, i64 2, i64 1, ptr %14)
  %16 = load ptr, ptr @stdout, align 8, !tbaa !22
  %17 = tail call i32 @fflush(ptr noundef %16)
  tail call void @abort() #31
  unreachable

18:                                               ; preds = %1
  %19 = call zeroext i16 @wolfSSL_SNI_GetRequest(ptr noundef %0, i8 noundef zeroext 0, ptr noundef nonnull %2) #27
  %20 = icmp eq i16 %19, 15
  br i1 %20, label %34, label %21

21:                                               ; preds = %18
  %22 = zext i16 %19 to i32
  %23 = call i32 (ptr, ...) @printf(ptr noundef nonnull dereferenceable(1) @.str, ptr noundef nonnull @.str.1, i32 noundef 11496)
  %24 = load ptr, ptr @stdout, align 8, !tbaa !22
  %25 = call i64 @fwrite(ptr nonnull @.str.2, i64 15, i64 1, ptr %24)
  %26 = call i32 (ptr, ...) @printf(ptr noundef nonnull dereferenceable(1) @.str.3, ptr noundef nonnull @.str.2023, ptr noundef nonnull @.str.2024)
  %27 = load ptr, ptr @stdout, align 8, !tbaa !22
  %28 = call i64 @fwrite(ptr nonnull @.str.6, i64 15, i64 1, ptr %27)
  %29 = call i32 (ptr, ...) @printf(ptr noundef nonnull dereferenceable(1) @.str.7, i32 noundef 15, i32 noundef %22)
  %30 = load ptr, ptr @stdout, align 8, !tbaa !22
  %31 = call i64 @fwrite(ptr nonnull @.str.8, i64 2, i64 1, ptr %30)
  %32 = load ptr, ptr @stdout, align 8, !tbaa !22
  %33 = call i32 @fflush(ptr noundef %32)
  call void @abort() #31
  unreachable

34:                                               ; preds = %18
  %35 = load ptr, ptr %2, align 8, !tbaa !208
  %.not = icmp eq ptr %35, null
  br i1 %.not, label %36, label %48

36:                                               ; preds = %34
  %37 = call i32 (ptr, ...) @printf(ptr noundef nonnull dereferenceable(1) @.str, ptr noundef nonnull @.str.1, i32 noundef 11497)
  %38 = load ptr, ptr @stdout, align 8, !tbaa !22
  %39 = call i64 @fwrite(ptr nonnull @.str.2, i64 15, i64 1, ptr %38)
  %40 = call i32 (ptr, ...) @printf(ptr noundef nonnull dereferenceable(1) @.str.989, ptr noundef nonnull @.str.2025)
  %41 = load ptr, ptr @stdout, align 8, !tbaa !22
  %42 = call i64 @fwrite(ptr nonnull @.str.6, i64 15, i64 1, ptr %41)
  %43 = call i32 (ptr, ...) @printf(ptr noundef nonnull dereferenceable(1) @.str.2026)
  %44 = load ptr, ptr @stdout, align 8, !tbaa !22
  %45 = call i64 @fwrite(ptr nonnull @.str.8, i64 2, i64 1, ptr %44)
  %46 = load ptr, ptr @stdout, align 8, !tbaa !22
  %47 = call i32 @fflush(ptr noundef %46)
  call void @abort() #31
  unreachable

48:                                               ; preds = %34
  %49 = call i32 @strcmp(ptr noundef nonnull dereferenceable(16) @.str.2019, ptr noundef nonnull dereferenceable(1) %35) #32
  %50 = icmp eq i32 %49, 0
  br i1 %50, label %63, label %51

51:                                               ; preds = %48
  %52 = call i32 (ptr, ...) @printf(ptr noundef nonnull dereferenceable(1) @.str, ptr noundef nonnull @.str.1, i32 noundef 11498)
  %53 = load ptr, ptr @stdout, align 8, !tbaa !22
  %54 = call i64 @fwrite(ptr nonnull @.str.2, i64 15, i64 1, ptr %53)
  %55 = call i32 (ptr, ...) @printf(ptr noundef nonnull dereferenceable(1) @.str.3, ptr noundef nonnull @.str.2027, ptr noundef nonnull @.str.2028)
  %56 = load ptr, ptr @stdout, align 8, !tbaa !22
  %57 = call i64 @fwrite(ptr nonnull @.str.6, i64 15, i64 1, ptr %56)
  %58 = call i32 (ptr, ...) @printf(ptr noundef nonnull dereferenceable(1) @.str.1063, ptr noundef nonnull @.str.2019, ptr noundef nonnull %35)
  %59 = load ptr, ptr @stdout, align 8, !tbaa !22
  %60 = call i64 @fwrite(ptr nonnull @.str.8, i64 2, i64 1, ptr %59)
  %61 = load ptr, ptr @stdout, align 8, !tbaa !22
  %62 = call i32 @fflush(ptr noundef %61)
  call void @abort() #31
  unreachable

63:                                               ; preds = %48
  call void @llvm.lifetime.end.p0(i64 8, ptr nonnull %2) #27
  ret void
}